(dp0
S'computer_class'
p1
(lp2
(lp3
(lp4
(lp5
F859.38369604153945
aF1129.6869862794911
aF0.97872920237239824
aF-0.20515639990867693
aF11.83865470136034
aI100
aa(lp6
F770.91868702453792
aF1221.7861829483686
aF0.96856480887152041
aF-0.2487613535412507
aF14.404227577661734
aI100
aaa(lp7
(lp8
F1616.9952720094648
aF538.79602534188575
aF0.92926102821577306
aF0.36942379652556789
aF-21.680085717428245
aI100
aa(lp9
F1872.5370298798327
aF652.95800967371815
aF0.9378676428029985
aF0.34699320538469819
aF-20.303516011117015
aI100
aaa(lp10
(lp11
F2168.5274050663579
aF985.53617913233404
aF0.6989557563642137
aF-0.71516491150316508
aF45.656715887071925
aI100
aa(lp12
F2073.1566262910319
aF1089.191067327652
aF0.6907035364280194
aF-0.7231380399106575
aF46.31417429726217
aI100
aaa(lp13
(lp14
F1917.6469272426207
aF1045.3304344341816
aF0.87839557793257605
aF-0.47793431417768667
aF28.550575509320275
aI100
aa(lp15
F2093.1127296682193
aF1011.1732923699187
aF0.77918528033653733
aF-0.6267936653372238
aF38.81395915183473
aI100
aaaa(lp16
(lp17
F2317.4087037533254
aF941.70856377711993
aF0.95451113071047267
aF-0.29817528628277518
aa(lp18
F2131.9675352818331
aF985.05008928477707
aF0.69315637775944294
aF0.72078723349641005
aa(lp19
F1922.6138191165567
aF820.19112011725065
aF0.78093188371628464
aF0.62461619655219902
aa(lp20
F1177.4947219020473
aF1160.8102057725678
aF0.98578012423940964
aF-0.16804031258758814
aa(lp21
F1269.049749508835
aF1093.616905483779
aF0.99384988390031093
aF-0.11073575877438412
aa(lp22
F2151.1293136109775
aF111.94149524400166
aF0.4282172033824142
aF-0.90367584161985004
aa(lp23
F1759.6494979529198
aF1609.1100632932157
aF0.057423923768960584
aF0.99834988504981392
aa(lp24
F1916.5085567591473
aF1396.0316556197256
aF0.44465200336597688
aF0.89570340844646956
aa(lp25
F1618.8860485801065
aF1033.5153866981095
aF0.97779587795741085
aF-0.20955958830245899
aa(lp26
F1719.9719485620326
aF1011.4371736040753
aF0.99092281844976438
aF-0.13443201953245931
aa(lp27
F732.69260460427915
aF415.63154242397172
aF-0.88574115297381961
aF-0.46417950184019197
aa(lp28
F1855.7606123957064
aF451.07260359863614
aF0.86476155121214582
aF-0.5021826953860149
aa(lp29
F2005.6297805222539
aF414.03055118290376
aF0.89303946669904433
aF-0.44997834494327227
aa(lp30
F373.86909111107161
aF119.12423845508167
aF-0.86544185351540093
aF-0.50100937933718104
aaaF1.1000000000000001
aI0
asS'player_class'
p31
(lp32
F2328.6421870120225
aF821.70825037163081
aF660.0
aI0
a(dp33
I1
I500
sI2
I500
sI3
I250
sI4
I200
sI5
I380
sas.